target datalayout = "e-m:e-p270:32:32-p271:32:32-p272:64:64-i64:64-i128:128-f80:128-n8:16:32:64-S128"
target triple = "x86_64-pc-linux-gnu"

%struct.mbedtls_mpi = type { ptr, i16, i16 }

; Function Attrs: nounwind uwtable
define hidden i32 @mbedtls_mpi_cmp_abs(ptr noundef %0, ptr noundef %1) #0 {
  %3 = alloca i32, align 4
  %4 = alloca ptr, align 8
  %5 = alloca ptr, align 8
  %6 = alloca i64, align 8
  %7 = alloca i64, align 8
  %8 = alloca i32, align 4
  store ptr %0, ptr %4, align 8, !tbaa !3
  store ptr %1, ptr %5, align 8, !tbaa !3
  call void @llvm.lifetime.start.p0(i64 8, ptr %6) #9
  call void @llvm.lifetime.start.p0(i64 8, ptr %7) #9
  %9 = load ptr, ptr %4, align 8, !tbaa !3
  %10 = getelementptr inbounds nuw %struct.mbedtls_mpi, ptr %9, i32 0, i32 2
  %11 = load i16, ptr %10, align 2, !tbaa !10
  %12 = zext i16 %11 to i64
  store i64 %12, ptr %6, align 8, !tbaa !15
  br label %13

13:                                               ; preds = %27, %2
  %14 = load i64, ptr %6, align 8, !tbaa !15
  %15 = icmp ugt i64 %14, 0
  br i1 %15, label %16, label %30

16:                                               ; preds = %13
  %17 = load ptr, ptr %4, align 8, !tbaa !3
  %18 = getelementptr inbounds nuw %struct.mbedtls_mpi, ptr %17, i32 0, i32 0
  %19 = load ptr, ptr %18, align 8, !tbaa !17
  %20 = load i64, ptr %6, align 8, !tbaa !15
  %21 = sub i64 %20, 1
  %22 = getelementptr inbounds nuw i64, ptr %19, i64 %21
  %23 = load i64, ptr %22, align 8, !tbaa !15
  %24 = icmp ne i64 %23, 0
  br i1 %24, label %25, label %26

25:                                               ; preds = %16
  br label %30

26:                                               ; preds = %16
  br label %27

27:                                               ; preds = %26
  %28 = load i64, ptr %6, align 8, !tbaa !15
  %29 = add i64 %28, -1
  store i64 %29, ptr %6, align 8, !tbaa !15
  br label %13, !llvm.loop !44

30:                                               ; preds = %25, %13
  %31 = load ptr, ptr %5, align 8, !tbaa !3
  %32 = getelementptr inbounds nuw %struct.mbedtls_mpi, ptr %31, i32 0, i32 2
  %33 = load i16, ptr %32, align 2, !tbaa !10
  %34 = zext i16 %33 to i64
  store i64 %34, ptr %7, align 8, !tbaa !15
  br label %35

35:                                               ; preds = %49, %30
  %36 = load i64, ptr %7, align 8, !tbaa !15
  %37 = icmp ugt i64 %36, 0
  br i1 %37, label %38, label %52

38:                                               ; preds = %35
  %39 = load ptr, ptr %5, align 8, !tbaa !3
  %40 = getelementptr inbounds nuw %struct.mbedtls_mpi, ptr %39, i32 0, i32 0
  %41 = load ptr, ptr %40, align 8, !tbaa !17
  %42 = load i64, ptr %7, align 8, !tbaa !15
  %43 = sub i64 %42, 1
  %44 = getelementptr inbounds nuw i64, ptr %41, i64 %43
  %45 = load i64, ptr %44, align 8, !tbaa !15
  %46 = icmp ne i64 %45, 0
  br i1 %46, label %47, label %48

47:                                               ; preds = %38
  br label %52

48:                                               ; preds = %38
  br label %49

49:                                               ; preds = %48
  %50 = load i64, ptr %7, align 8, !tbaa !15
  %51 = add i64 %50, -1
  store i64 %51, ptr %7, align 8, !tbaa !15
  br label %35, !llvm.loop !45

52:                                               ; preds = %47, %35
  %53 = load i64, ptr %6, align 8, !tbaa !15
  %54 = load i64, ptr %7, align 8, !tbaa !15
  %55 = icmp ugt i64 %53, %54
  br i1 %55, label %56, label %57

56:                                               ; preds = %52
  store i32 1, ptr %3, align 4
  store i32 1, ptr %8, align 4
  br label %105

57:                                               ; preds = %52
  %58 = load i64, ptr %7, align 8, !tbaa !15
  %59 = load i64, ptr %6, align 8, !tbaa !15
  %60 = icmp ugt i64 %58, %59
  br i1 %60, label %61, label %62

61:                                               ; preds = %57
  store i32 -1, ptr %3, align 4
  store i32 1, ptr %8, align 4
  br label %105

62:                                               ; preds = %57
  br label %63

63:                                               ; preds = %101, %62
  %64 = load i64, ptr %6, align 8, !tbaa !15
  %65 = icmp ugt i64 %64, 0
  br i1 %65, label %66, label %104

66:                                               ; preds = %63
  %67 = load ptr, ptr %4, align 8, !tbaa !3
  %68 = getelementptr inbounds nuw %struct.mbedtls_mpi, ptr %67, i32 0, i32 0
  %69 = load ptr, ptr %68, align 8, !tbaa !17
  %70 = load i64, ptr %6, align 8, !tbaa !15
  %71 = sub i64 %70, 1
  %72 = getelementptr inbounds nuw i64, ptr %69, i64 %71
  %73 = load i64, ptr %72, align 8, !tbaa !15
  %74 = load ptr, ptr %5, align 8, !tbaa !3
  %75 = getelementptr inbounds nuw %struct.mbedtls_mpi, ptr %74, i32 0, i32 0
  %76 = load ptr, ptr %75, align 8, !tbaa !17
  %77 = load i64, ptr %6, align 8, !tbaa !15
  %78 = sub i64 %77, 1
  %79 = getelementptr inbounds nuw i64, ptr %76, i64 %78
  %80 = load i64, ptr %79, align 8, !tbaa !15
  %81 = icmp ugt i64 %73, %80
  br i1 %81, label %82, label %83

82:                                               ; preds = %66
  store i32 1, ptr %3, align 4
  store i32 1, ptr %8, align 4
  br label %105

83:                                               ; preds = %66
  %84 = load ptr, ptr %4, align 8, !tbaa !3
  %85 = getelementptr inbounds nuw %struct.mbedtls_mpi, ptr %84, i32 0, i32 0
  %86 = load ptr, ptr %85, align 8, !tbaa !17
  %87 = load i64, ptr %6, align 8, !tbaa !15
  %88 = sub i64 %87, 1
  %89 = getelementptr inbounds nuw i64, ptr %86, i64 %88
  %90 = load i64, ptr %89, align 8, !tbaa !15
  %91 = load ptr, ptr %5, align 8, !tbaa !3
  %92 = getelementptr inbounds nuw %struct.mbedtls_mpi, ptr %91, i32 0, i32 0
  %93 = load ptr, ptr %92, align 8, !tbaa !17
  %94 = load i64, ptr %6, align 8, !tbaa !15
  %95 = sub i64 %94, 1
  %96 = getelementptr inbounds nuw i64, ptr %93, i64 %95
  %97 = load i64, ptr %96, align 8, !tbaa !15
  %98 = icmp ult i64 %90, %97
  br i1 %98, label %99, label %100

99:                                               ; preds = %83
  store i32 -1, ptr %3, align 4
  store i32 1, ptr %8, align 4
  br label %105

100:                                              ; preds = %83
  br label %101

101:                                              ; preds = %100
  %102 = load i64, ptr %6, align 8, !tbaa !15
  %103 = add i64 %102, -1
  store i64 %103, ptr %6, align 8, !tbaa !15
  br label %63, !llvm.loop !46

104:                                              ; preds = %63
  store i32 0, ptr %3, align 4
  store i32 1, ptr %8, align 4
  br label %105

105:                                              ; preds = %104, %99, %82, %61, %56
  call void @llvm.lifetime.end.p0(i64 8, ptr %7) #9
  call void @llvm.lifetime.end.p0(i64 8, ptr %6) #9
  %106 = load i32, ptr %3, align 4
  ret i32 %106
}

; Function Attrs: nounwind uwtable
define internal i32 @add_sub_mpi(ptr noundef %0, ptr noundef %1, ptr noundef %2, i32 noundef %3) #0 {
  %5 = alloca i32, align 4
  %6 = alloca ptr, align 8
  %7 = alloca ptr, align 8
  %8 = alloca ptr, align 8
  %9 = alloca i32, align 4
  %10 = alloca i32, align 4
  %11 = alloca i32, align 4
  %12 = alloca i32, align 4
  %13 = alloca i32, align 4
  store ptr %0, ptr %6, align 8, !tbaa !3
  store ptr %1, ptr %7, align 8, !tbaa !3
  store ptr %2, ptr %8, align 8, !tbaa !3
  store i32 %3, ptr %9, align 4, !tbaa !19
  call void @llvm.lifetime.start.p0(i64 4, ptr %10) #9
  call void @llvm.lifetime.start.p0(i64 4, ptr %11) #9
  %14 = load ptr, ptr %7, align 8, !tbaa !3
  %15 = getelementptr inbounds nuw %struct.mbedtls_mpi, ptr %14, i32 0, i32 1
  %16 = load i16, ptr %15, align 8, !tbaa !14
  %17 = sext i16 %16 to i32
  store i32 %17, ptr %11, align 4, !tbaa !19
  %18 = load ptr, ptr %7, align 8, !tbaa !3
  %19 = getelementptr inbounds nuw %struct.mbedtls_mpi, ptr %18, i32 0, i32 1
  %20 = load i16, ptr %19, align 8, !tbaa !14
  %21 = sext i16 %20 to i32
  %22 = load ptr, ptr %8, align 8, !tbaa !3
  %23 = getelementptr inbounds nuw %struct.mbedtls_mpi, ptr %22, i32 0, i32 1
  %24 = load i16, ptr %23, align 8, !tbaa !14
  %25 = sext i16 %24 to i32
  %26 = mul nsw i32 %21, %25
  %27 = load i32, ptr %9, align 4, !tbaa !19
  %28 = mul nsw i32 %26, %27
  %29 = icmp slt i32 %28, 0
  br i1 %29, label %30, label %77

30:                                               ; preds = %4
  call void @llvm.lifetime.start.p0(i64 4, ptr %12) #9
  %31 = load ptr, ptr %7, align 8, !tbaa !3
  %32 = load ptr, ptr %8, align 8, !tbaa !3
  %33 = call i32 @mbedtls_mpi_cmp_abs(ptr noundef %31, ptr noundef %32)
  store i32 %33, ptr %12, align 4, !tbaa !19
  %34 = load i32, ptr %12, align 4, !tbaa !19
  %35 = icmp sge i32 %34, 0
  br i1 %35, label %36, label %57

36:                                               ; preds = %30
  br label %37

37:                                               ; preds = %36
  %38 = load ptr, ptr %6, align 8, !tbaa !3
  %39 = load ptr, ptr %7, align 8, !tbaa !3
  %40 = load ptr, ptr %8, align 8, !tbaa !3
  %41 = call i32 @mbedtls_mpi_sub_abs(ptr noundef %38, ptr noundef %39, ptr noundef %40)
  store i32 %41, ptr %10, align 4, !tbaa !19
  %42 = icmp ne i32 %41, 0
  br i1 %42, label %43, label %44

43:                                               ; preds = %37
  store i32 4, ptr %13, align 4
  br label %74

44:                                               ; preds = %37
  br label %45

45:                                               ; preds = %44
  br label %46

46:                                               ; preds = %45
  %47 = load i32, ptr %12, align 4, !tbaa !19
  %48 = icmp eq i32 %47, 0
  br i1 %48, label %49, label %50

49:                                               ; preds = %46
  br label %52

50:                                               ; preds = %46
  %51 = load i32, ptr %11, align 4, !tbaa !19
  br label %52

52:                                               ; preds = %50, %49
  %53 = phi i32 [ 1, %49 ], [ %51, %50 ]
  %54 = trunc i32 %53 to i16
  %55 = load ptr, ptr %6, align 8, !tbaa !3
  %56 = getelementptr inbounds nuw %struct.mbedtls_mpi, ptr %55, i32 0, i32 1
  store i16 %54, ptr %56, align 8, !tbaa !14
  br label %73

57:                                               ; preds = %30
  br label %58

58:                                               ; preds = %57
  %59 = load ptr, ptr %6, align 8, !tbaa !3
  %60 = load ptr, ptr %8, align 8, !tbaa !3
  %61 = load ptr, ptr %7, align 8, !tbaa !3
  %62 = call i32 @mbedtls_mpi_sub_abs(ptr noundef %59, ptr noundef %60, ptr noundef %61)
  store i32 %62, ptr %10, align 4, !tbaa !19
  %63 = icmp ne i32 %62, 0
  br i1 %63, label %64, label %65

64:                                               ; preds = %58
  store i32 4, ptr %13, align 4
  br label %74

65:                                               ; preds = %58
  br label %66

66:                                               ; preds = %65
  br label %67

67:                                               ; preds = %66
  %68 = load i32, ptr %11, align 4, !tbaa !19
  %69 = sub nsw i32 0, %68
  %70 = trunc i32 %69 to i16
  %71 = load ptr, ptr %6, align 8, !tbaa !3
  %72 = getelementptr inbounds nuw %struct.mbedtls_mpi, ptr %71, i32 0, i32 1
  store i16 %70, ptr %72, align 8, !tbaa !14
  br label %73

73:                                               ; preds = %67, %52
  store i32 0, ptr %13, align 4
  br label %74

74:                                               ; preds = %64, %43, %73
  call void @llvm.lifetime.end.p0(i64 4, ptr %12) #9
  %75 = load i32, ptr %13, align 4
  switch i32 %75, label %95 [
    i32 0, label %76
    i32 4, label %93
  ]

76:                                               ; preds = %74
  br label %92

77:                                               ; preds = %4
  br label %78

78:                                               ; preds = %77
  %79 = load ptr, ptr %6, align 8, !tbaa !3
  %80 = load ptr, ptr %7, align 8, !tbaa !3
  %81 = load ptr, ptr %8, align 8, !tbaa !3
  %82 = call i32 @mbedtls_mpi_add_abs(ptr noundef %79, ptr noundef %80, ptr noundef %81)
  store i32 %82, ptr %10, align 4, !tbaa !19
  %83 = icmp ne i32 %82, 0
  br i1 %83, label %84, label %85

84:                                               ; preds = %78
  br label %93

85:                                               ; preds = %78
  br label %86

86:                                               ; preds = %85
  br label %87

87:                                               ; preds = %86
  %88 = load i32, ptr %11, align 4, !tbaa !19
  %89 = trunc i32 %88 to i16
  %90 = load ptr, ptr %6, align 8, !tbaa !3
  %91 = getelementptr inbounds nuw %struct.mbedtls_mpi, ptr %90, i32 0, i32 1
  store i16 %89, ptr %91, align 8, !tbaa !14
  br label %92

92:                                               ; preds = %87, %76
  br label %93

93:                                               ; preds = %92, %74, %84
  %94 = load i32, ptr %10, align 4, !tbaa !19
  store i32 %94, ptr %5, align 4
  store i32 1, ptr %13, align 4
  br label %95

95:                                               ; preds = %93, %74
  call void @llvm.lifetime.end.p0(i64 4, ptr %11) #9
  call void @llvm.lifetime.end.p0(i64 4, ptr %10) #9
  %96 = load i32, ptr %5, align 4
  ret i32 %96
}