; Function Attrs: nounwind uwtable
define internal fastcc range(i32 -16, 1) i32 @add_sub_mpi(ptr noundef %0, ptr noundef %1, ptr noundef %2, i32 noundef range(i32 -1, 2) %3) unnamed_addr #0 {
  %5 = getelementptr inbounds nuw i8, ptr %1, i64 8
  %6 = load i16, ptr %5, align 8, !tbaa !10
  %7 = sext i16 %6 to i32
  %8 = getelementptr inbounds nuw i8, ptr %2, i64 8
  %9 = load i16, ptr %8, align 8, !tbaa !10
  %10 = sext i16 %9 to i32
  %11 = mul nsw i32 %3, %7
  %12 = mul nsw i32 %11, %10
  %13 = icmp slt i32 %12, 0
  br i1 %13, label %14, label %50

14:                                               ; preds = %4
  %15 = getelementptr inbounds nuw i8, ptr %1, i64 10
  %16 = load i16, ptr %15, align 2, !tbaa !3
  %.not32.i = icmp eq i16 %16, 0
  br i1 %.not32.i, label %._crit_edge.i, label %.lr.ph.i

.lr.ph.i:                                         ; preds = %14
  %17 = zext i16 %16 to i64
  %18 = load ptr, ptr %1, align 8, !tbaa !12
  %invariant.gep.i = getelementptr i8, ptr %18, i64 -8
  br label %19

19:                                               ; preds = %21, %.lr.ph.i
  %.02433.i = phi i64 [ %17, %.lr.ph.i ], [ %22, %21 ]
  %gep.i = getelementptr i64, ptr %invariant.gep.i, i64 %.02433.i
  %20 = load i64, ptr %gep.i, align 8, !tbaa !17
  %.not28.i = icmp eq i64 %20, 0
  br i1 %.not28.i, label %21, label %._crit_edge.i

21:                                               ; preds = %19
  %22 = add nsw i64 %.02433.i, -1
  %.not.i = icmp eq i64 %22, 0
  br i1 %.not.i, label %._crit_edge.i, label %19, !llvm.loop !34

._crit_edge.i:                                    ; preds = %21, %19, %14
  %.024.lcssa.i = phi i64 [ 0, %14 ], [ 0, %21 ], [ %.02433.i, %19 ]
  %23 = getelementptr inbounds nuw i8, ptr %2, i64 10
  %24 = load i16, ptr %23, align 2, !tbaa !3
  %.not2936.i = icmp eq i16 %24, 0
  br i1 %.not2936.i, label %._crit_edge40.i, label %.lr.ph39.i

.lr.ph39.i:                                       ; preds = %._crit_edge.i
  %25 = zext i16 %24 to i64
  %26 = load ptr, ptr %2, align 8, !tbaa !12
  %invariant.gep44.i = getelementptr i8, ptr %26, i64 -8
  br label %27

27:                                               ; preds = %29, %.lr.ph39.i
  %.037.i = phi i64 [ %25, %.lr.ph39.i ], [ %30, %29 ]
  %gep45.i = getelementptr i64, ptr %invariant.gep44.i, i64 %.037.i
  %28 = load i64, ptr %gep45.i, align 8, !tbaa !17
  %.not30.i = icmp eq i64 %28, 0
  br i1 %.not30.i, label %29, label %._crit_edge40.i

29:                                               ; preds = %27
  %30 = add nsw i64 %.037.i, -1
  %.not29.i = icmp eq i64 %30, 0
  br i1 %.not29.i, label %._crit_edge40.i, label %27, !llvm.loop !35

._crit_edge40.i:                                  ; preds = %29, %27, %._crit_edge.i
  %.0.lcssa.i = phi i64 [ 0, %._crit_edge.i ], [ 0, %29 ], [ %.037.i, %27 ]
  %31 = icmp ugt i64 %.024.lcssa.i, %.0.lcssa.i
  br i1 %31, label %.loopexit, label %32

32:                                               ; preds = %._crit_edge40.i
  %33 = icmp ugt i64 %.0.lcssa.i, %.024.lcssa.i
  br i1 %33, label %mbedtls_mpi_cmp_abs.exit, label %.preheader.i

.preheader.i:                                     ; preds = %32, %43
  %.1.i = phi i64 [ %36, %43 ], [ %.024.lcssa.i, %32 ]
  %.not31.i = icmp eq i64 %.1.i, 0
  br i1 %.not31.i, label %.loopexit, label %34

34:                                               ; preds = %.preheader.i
  %35 = load ptr, ptr %1, align 8, !tbaa !12
  %36 = add nsw i64 %.1.i, -1
  %37 = getelementptr inbounds nuw i64, ptr %35, i64 %36
  %38 = load i64, ptr %37, align 8, !tbaa !17
  %39 = load ptr, ptr %2, align 8, !tbaa !12
  %40 = getelementptr inbounds nuw i64, ptr %39, i64 %36
  %41 = load i64, ptr %40, align 8, !tbaa !17
  %42 = icmp ugt i64 %38, %41
  br i1 %42, label %.loopexit, label %43

43:                                               ; preds = %34
  %44 = icmp ult i64 %38, %41
  br i1 %44, label %mbedtls_mpi_cmp_abs.exit, label %.preheader.i, !llvm.loop !36

.loopexit:                                        ; preds = %.preheader.i, %34, %._crit_edge40.i
  %45 = phi i16 [ %6, %._crit_edge40.i ], [ 1, %.preheader.i ], [ %6, %34 ]
  %46 = tail call i32 @mbedtls_mpi_sub_abs(ptr noundef %0, ptr noundef %1, ptr noundef %2)
  %.not35 = icmp eq i32 %46, 0
  br i1 %.not35, label %.sink.split, label %53

mbedtls_mpi_cmp_abs.exit:                         ; preds = %43, %32
  %47 = tail call i32 @mbedtls_mpi_sub_abs(ptr noundef %0, ptr noundef %2, ptr noundef %1)
  %.not34 = icmp eq i32 %47, 0
  br i1 %.not34, label %48, label %53

48:                                               ; preds = %mbedtls_mpi_cmp_abs.exit
  %49 = sub i16 0, %6
  br label %.sink.split

50:                                               ; preds = %4
  %51 = tail call i32 @mbedtls_mpi_add_abs(ptr noundef %0, ptr noundef nonnull %1, ptr noundef nonnull %2)
  %.not = icmp eq i32 %51, 0
  br i1 %.not, label %.sink.split, label %53

.sink.split:                                      ; preds = %50, %.loopexit, %48
  %.sink = phi i16 [ %49, %48 ], [ %45, %.loopexit ], [ %6, %50 ]
  %52 = getelementptr inbounds nuw i8, ptr %0, i64 8
  store i16 %.sink, ptr %52, align 8, !tbaa !10
  br label %53

53:                                               ; preds = %.sink.split, %50, %mbedtls_mpi_cmp_abs.exit, %.loopexit
  %.2 = phi i32 [ %51, %50 ], [ %46, %.loopexit ], [ %47, %mbedtls_mpi_cmp_abs.exit ], [ 0, %.sink.split ]
  ret i32 %.2
}